target datalayout = "e-m:e-p270:32:32-p271:32:32-p272:64:64-i64:64-i128:128-f80:128-n8:16:32:64-S128"
target triple = "x86_64-pc-linux-gnu"

%class.StatementIf = type { %class.Statement, ptr, ptr, ptr }
%class.Statement = type { ptr, i32, i32, ptr, ptr }
%"class.std::ios_base" = type { ptr, i64, i64, i32, i32, i32, ptr, %"struct.std::ios_base::_Words", [8 x %"struct.std::ios_base::_Words"], i32, ptr, %"class.std::locale" }
%"struct.std::ios_base::_Words" = type { ptr, i64 }
%"class.std::locale" = type { ptr }

@.str.1 = private unnamed_addr constant [5 x i8] c"if (\00", align 1
@.str.2 = private unnamed_addr constant [2 x i8] c")\00", align 1
@.str.3 = private unnamed_addr constant [5 x i8] c"else\00", align 1

; Function Attrs: inlinehint mustprogress nounwind uwtable
define linkonce_odr dso_local noundef i32 @_ZStorSt12_Ios_IostateS_(i32 noundef %0, i32 noundef %1) #7 comdat {
  %3 = alloca i32, align 4
  %4 = alloca i32, align 4
  store i32 %0, ptr %3, align 4, !tbaa !224
  store i32 %1, ptr %4, align 4, !tbaa !224
  %5 = load i32, ptr %3, align 4, !tbaa !224
  %6 = load i32, ptr %4, align 4, !tbaa !224
  %7 = or i32 %5, %6
  ret i32 %7
}

; Function Attrs: mustprogress nounwind uwtable
define available_externally noundef i32 @_ZNKSt9basic_iosIcSt11char_traitsIcEE7rdstateEv(ptr noundef nonnull align 8 dereferenceable(264) %0) #6 align 2 {
  %2 = alloca ptr, align 8
  store ptr %0, ptr %2, align 8, !tbaa !222
  %3 = load ptr, ptr %2, align 8
  %4 = getelementptr inbounds nuw %"class.std::ios_base", ptr %3, i32 0, i32 5
  %5 = load i32, ptr %4, align 8, !tbaa !226
  ret i32 %5
}

; Function Attrs: mustprogress nounwind uwtable
define linkonce_odr dso_local noundef i64 @_ZNSt11char_traitsIcE6lengthEPKc(ptr noundef %0) #6 comdat align 2 {
  %2 = alloca ptr, align 8
  store ptr %0, ptr %2, align 8, !tbaa !57
  %3 = load ptr, ptr %2, align 8, !tbaa !57
  %4 = call i64 @strlen(ptr noundef %3) #3
  ret i64 %4
}

; Function Attrs: mustprogress uwtable
define available_externally void @_ZNSt9basic_iosIcSt11char_traitsIcEE8setstateESt12_Ios_Iostate(ptr noundef nonnull align 8 dereferenceable(264) %0, i32 noundef %1) #4 align 2 {
  %3 = alloca ptr, align 8
  %4 = alloca i32, align 4
  store ptr %0, ptr %3, align 8, !tbaa !222
  store i32 %1, ptr %4, align 4, !tbaa !224
  %5 = load ptr, ptr %3, align 8
  %6 = call noundef i32 @_ZNKSt9basic_iosIcSt11char_traitsIcEE7rdstateEv(ptr noundef nonnull align 8 dereferenceable(264) %5)
  %7 = load i32, ptr %4, align 4, !tbaa !224
  %8 = call noundef i32 @_ZStorSt12_Ios_IostateS_(i32 noundef %6, i32 noundef %7)
  call void @_ZNSt9basic_iosIcSt11char_traitsIcEE5clearESt12_Ios_Iostate(ptr noundef nonnull align 8 dereferenceable(264) %5, i32 noundef %8)
  ret void
}

; Function Attrs: inlinehint mustprogress uwtable
define available_externally noundef nonnull align 8 dereferenceable(8) ptr @_ZStlsISt11char_traitsIcEERSt13basic_ostreamIcT_ES5_PKc(ptr noundef nonnull align 8 dereferenceable(8) %0, ptr noundef %1) #10 {
  %3 = alloca ptr, align 8
  %4 = alloca ptr, align 8
  store ptr %0, ptr %3, align 8, !tbaa !89
  store ptr %1, ptr %4, align 8, !tbaa !57
  %5 = load ptr, ptr %4, align 8, !tbaa !57
  %6 = icmp ne ptr %5, null
  br i1 %6, label %13, label %7

7:                                                ; preds = %2
  %8 = load ptr, ptr %3, align 8, !tbaa !89
  %9 = load ptr, ptr %8, align 8, !tbaa !42
  %10 = getelementptr i8, ptr %9, i64 -24
  %11 = load i64, ptr %10, align 8
  %12 = getelementptr inbounds i8, ptr %8, i64 %11
  call void @_ZNSt9basic_iosIcSt11char_traitsIcEE8setstateESt12_Ios_Iostate(ptr noundef nonnull align 8 dereferenceable(264) %12, i32 noundef 1)
  br label %19

13:                                               ; preds = %2
  %14 = load ptr, ptr %3, align 8, !tbaa !89
  %15 = load ptr, ptr %4, align 8, !tbaa !57
  %16 = load ptr, ptr %4, align 8, !tbaa !57
  %17 = call noundef i64 @_ZNSt11char_traitsIcE6lengthEPKc(ptr noundef %16)
  %18 = call noundef nonnull align 8 dereferenceable(8) ptr @_ZSt16__ostream_insertIcSt11char_traitsIcEERSt13basic_ostreamIT_T0_ES6_PKS3_l(ptr noundef nonnull align 8 dereferenceable(8) %14, ptr noundef %15, i64 noundef %17)
  br label %19

19:                                               ; preds = %13, %7
  %20 = load ptr, ptr %3, align 8, !tbaa !89
  ret ptr %20
}

; Function Attrs: mustprogress uwtable
define dso_local void @_ZNK11StatementIf15output_branchesERSoP7FactMgri(ptr noundef nonnull align 8 dereferenceable(56) %0, ptr noundef nonnull align 8 dereferenceable(8) %1, ptr noundef %2, i32 noundef %3) #4 align 2 {
  %5 = alloca ptr, align 8
  %6 = alloca ptr, align 8
  %7 = alloca ptr, align 8
  %8 = alloca i32, align 4
  store ptr %0, ptr %5, align 8, !tbaa !51
  store ptr %1, ptr %6, align 8, !tbaa !89
  store ptr %2, ptr %7, align 8, !tbaa !9
  store i32 %3, ptr %8, align 4, !tbaa !68
  %9 = load ptr, ptr %5, align 8
  %10 = getelementptr inbounds nuw %class.StatementIf, ptr %9, i32 0, i32 2
  %11 = load ptr, ptr %10, align 8, !tbaa !86
  %12 = load ptr, ptr %6, align 8, !tbaa !89
  %13 = load ptr, ptr %7, align 8, !tbaa !9
  %14 = load i32, ptr %8, align 4, !tbaa !68
  %15 = load ptr, ptr %11, align 8, !tbaa !42
  %16 = getelementptr inbounds ptr, ptr %15, i64 9
  %17 = load ptr, ptr %16, align 8
  call void %17(ptr noundef nonnull align 8 dereferenceable(192) %11, ptr noundef nonnull align 8 dereferenceable(8) %12, ptr noundef %13, i32 noundef %14)
  %18 = load ptr, ptr %6, align 8, !tbaa !89
  %19 = load i32, ptr %8, align 4, !tbaa !68
  call void @_Z10output_tabRSoi(ptr noundef nonnull align 8 dereferenceable(8) %18, i32 noundef %19)
  %20 = load ptr, ptr %6, align 8, !tbaa !89
  %21 = call noundef nonnull align 8 dereferenceable(8) ptr @_ZStlsISt11char_traitsIcEERSt13basic_ostreamIcT_ES5_PKc(ptr noundef nonnull align 8 dereferenceable(8) %20, ptr noundef @.str.3)
  %22 = load ptr, ptr %6, align 8, !tbaa !89
  call void @_Z8outputlnRSo(ptr noundef nonnull align 8 dereferenceable(8) %22)
  %23 = getelementptr inbounds nuw %class.StatementIf, ptr %9, i32 0, i32 3
  %24 = load ptr, ptr %23, align 8, !tbaa !87
  %25 = load ptr, ptr %6, align 8, !tbaa !89
  %26 = load ptr, ptr %7, align 8, !tbaa !9
  %27 = load i32, ptr %8, align 4, !tbaa !68
  %28 = load ptr, ptr %24, align 8, !tbaa !42
  %29 = getelementptr inbounds ptr, ptr %28, i64 9
  %30 = load ptr, ptr %29, align 8
  call void %30(ptr noundef nonnull align 8 dereferenceable(192) %24, ptr noundef nonnull align 8 dereferenceable(8) %25, ptr noundef %26, i32 noundef %27)
  ret void
}

; Function Attrs: mustprogress uwtable
define dso_local void @_ZNK11StatementIf16output_conditionERSoP7FactMgri(ptr noundef nonnull align 8 dereferenceable(56) %0, ptr noundef nonnull align 8 dereferenceable(8) %1, ptr noundef %2, i32 noundef %3) #4 align 2 {
  %5 = alloca ptr, align 8
  %6 = alloca ptr, align 8
  %7 = alloca ptr, align 8
  %8 = alloca i32, align 4
  store ptr %0, ptr %5, align 8, !tbaa !51
  store ptr %1, ptr %6, align 8, !tbaa !89
  store ptr %2, ptr %7, align 8, !tbaa !9
  store i32 %3, ptr %8, align 4, !tbaa !68
  %9 = load ptr, ptr %5, align 8
  %10 = load ptr, ptr %6, align 8, !tbaa !89
  %11 = load i32, ptr %8, align 4, !tbaa !68
  call void @_Z10output_tabRSoi(ptr noundef nonnull align 8 dereferenceable(8) %10, i32 noundef %11)
  %12 = load ptr, ptr %6, align 8, !tbaa !89
  %13 = call noundef nonnull align 8 dereferenceable(8) ptr @_ZStlsISt11char_traitsIcEERSt13basic_ostreamIcT_ES5_PKc(ptr noundef nonnull align 8 dereferenceable(8) %12, ptr noundef @.str.1)
  %14 = getelementptr inbounds nuw %class.StatementIf, ptr %9, i32 0, i32 1
  %15 = load ptr, ptr %14, align 8, !tbaa !84
  %16 = load ptr, ptr %6, align 8, !tbaa !89
  %17 = load ptr, ptr %15, align 8, !tbaa !42
  %18 = getelementptr inbounds ptr, ptr %17, i64 18
  %19 = load ptr, ptr %18, align 8
  call void %19(ptr noundef nonnull align 8 dereferenceable(24) %15, ptr noundef nonnull align 8 dereferenceable(8) %16)
  %20 = load ptr, ptr %6, align 8, !tbaa !89
  %21 = call noundef nonnull align 8 dereferenceable(8) ptr @_ZStlsISt11char_traitsIcEERSt13basic_ostreamIcT_ES5_PKc(ptr noundef nonnull align 8 dereferenceable(8) %20, ptr noundef @.str.2)
  %22 = load ptr, ptr %6, align 8, !tbaa !89
  call void @_Z8outputlnRSo(ptr noundef nonnull align 8 dereferenceable(8) %22)
  ret void
}

; Function Attrs: mustprogress uwtable
define dso_local void @_ZNK11StatementIf6OutputERSoP7FactMgri(ptr noundef nonnull align 8 dereferenceable(56) %0, ptr noundef nonnull align 8 dereferenceable(8) %1, ptr noundef %2, i32 noundef %3) unnamed_addr #4 align 2 {
  %5 = alloca ptr, align 8
  %6 = alloca ptr, align 8
  %7 = alloca ptr, align 8
  %8 = alloca i32, align 4
  store ptr %0, ptr %5, align 8, !tbaa !51
  store ptr %1, ptr %6, align 8, !tbaa !89
  store ptr %2, ptr %7, align 8, !tbaa !9
  store i32 %3, ptr %8, align 4, !tbaa !68
  %9 = load ptr, ptr %5, align 8
  %10 = load ptr, ptr %6, align 8, !tbaa !89
  %11 = load ptr, ptr %7, align 8, !tbaa !9
  %12 = load i32, ptr %8, align 4, !tbaa !68
  call void @_ZNK11StatementIf16output_conditionERSoP7FactMgri(ptr noundef nonnull align 8 dereferenceable(56) %9, ptr noundef nonnull align 8 dereferenceable(8) %10, ptr noundef %11, i32 noundef %12)
  %13 = load ptr, ptr %6, align 8, !tbaa !89
  %14 = load ptr, ptr %7, align 8, !tbaa !9
  %15 = load i32, ptr %8, align 4, !tbaa !68
  call void @_ZNK11StatementIf15output_branchesERSoP7FactMgri(ptr noundef nonnull align 8 dereferenceable(56) %9, ptr noundef nonnull align 8 dereferenceable(8) %13, ptr noundef %14, i32 noundef %15)
  ret void
}